target datalayout = "e-m:e-p270:32:32-p271:32:32-p272:64:64-i64:64-i128:128-f80:128-n8:16:32:64-S128"
target triple = "x86_64-pc-linux-gnu"

%class.XPageCacheFlushClosure = type { ptr, i64, i64 }
%class.XPageCacheFlushForAllocationClosure = type { %class.XPageCacheFlushClosure }

@_ZTV22XPageCacheFlushClosure = linkonce_odr hidden unnamed_addr constant { [3 x ptr] } { [3 x ptr] [ptr null, ptr null, ptr @__cxa_pure_virtual] }, comdat, align 8
@_ZTV35XPageCacheFlushForAllocationClosure = linkonce_odr hidden unnamed_addr constant { [3 x ptr] } { [3 x ptr] [ptr null, ptr null, ptr @_ZN35XPageCacheFlushForAllocationClosure7do_pageEPK5XPage] }, comdat, align 8

; Function Attrs: mustprogress nounwind uwtable
define hidden void @_ZN22XPageCacheFlushClosureC2Em(ptr noundef nonnull align 8 dereferenceable(24) %0, i64 noundef %1) unnamed_addr #1 align 2 {
  %3 = alloca ptr, align 8
  %4 = alloca i64, align 8
  store ptr %0, ptr %3, align 8
  store i64 %1, ptr %4, align 8
  %5 = load ptr, ptr %3, align 8
  store ptr getelementptr inbounds inrange(-16, 8) ({ [3 x ptr] }, ptr @_ZTV22XPageCacheFlushClosure, i32 0, i32 0, i32 2), ptr %5, align 8
  %6 = getelementptr inbounds %class.XPageCacheFlushClosure, ptr %5, i32 0, i32 1
  %7 = load i64, ptr %4, align 8
  store i64 %7, ptr %6, align 8
  %8 = getelementptr inbounds %class.XPageCacheFlushClosure, ptr %5, i32 0, i32 2
  store i64 0, ptr %8, align 8
  ret void
}

; Function Attrs: mustprogress nounwind uwtable
define linkonce_odr hidden void @_ZN35XPageCacheFlushForAllocationClosureC2Em(ptr noundef nonnull align 8 dereferenceable(24) %0, i64 noundef %1) unnamed_addr #1 comdat align 2 {
  %3 = alloca ptr, align 8
  %4 = alloca i64, align 8
  store ptr %0, ptr %3, align 8
  store i64 %1, ptr %4, align 8
  %5 = load ptr, ptr %3, align 8
  %6 = load i64, ptr %4, align 8
  call void @_ZN22XPageCacheFlushClosureC2Em(ptr noundef nonnull align 8 dereferenceable(24) %5, i64 noundef %6)
  store ptr getelementptr inbounds inrange(-16, 8) ({ [3 x ptr] }, ptr @_ZTV35XPageCacheFlushForAllocationClosure, i32 0, i32 0, i32 2), ptr %5, align 8
  ret void
}

; Function Attrs: mustprogress nounwind uwtable
define hidden void @_ZN10XPageCache20flush_for_allocationEmP5XListI5XPageE(ptr noundef nonnull align 8 dereferenceable(64) %0, i64 noundef %1, ptr noundef %2) #1 align 2 {
  %4 = alloca ptr, align 8
  %5 = alloca i64, align 8
  %6 = alloca ptr, align 8
  %7 = alloca %class.XPageCacheFlushForAllocationClosure, align 8
  store ptr %0, ptr %4, align 8
  store i64 %1, ptr %5, align 8
  store ptr %2, ptr %6, align 8
  %8 = load ptr, ptr %4, align 8
  %9 = load i64, ptr %5, align 8
  call void @_ZN35XPageCacheFlushForAllocationClosureC2Em(ptr noundef nonnull align 8 dereferenceable(24) %7, i64 noundef %9)
  %10 = load ptr, ptr %6, align 8
  call void @_ZN10XPageCache5flushEP22XPageCacheFlushClosureP5XListI5XPageE(ptr noundef nonnull align 8 dereferenceable(64) %8, ptr noundef %7, ptr noundef %10)
  ret void
}