; Function Attrs: mustprogress nounwind uwtable
define hidden void @_ZN10XPageCache20flush_for_allocationEmP5XListI5XPageE(ptr noundef nonnull align 8 dereferenceable(64) %0, i64 noundef %1, ptr nocapture noundef %2) local_unnamed_addr #2 align 2 {
  %4 = alloca %class.XPageCacheFlushForAllocationClosure, align 8
  %5 = getelementptr inbounds i8, ptr %4, i64 8
  store i64 %1, ptr %5, align 8
  %6 = getelementptr inbounds i8, ptr %4, i64 16
  store i64 0, ptr %6, align 8
  store ptr getelementptr inbounds inrange(-16, 8) (i8, ptr @_ZTV35XPageCacheFlushForAllocationClosure, i64 16), ptr %4, align 8
  call void @_ZN10XPageCache5flushEP22XPageCacheFlushClosureP5XListI5XPageE(ptr noundef nonnull align 8 dereferenceable(64) %0, ptr noundef nonnull %4, ptr noundef %2)
  ret void
}